target datalayout = "e-m:e-p270:32:32-p271:32:32-p272:64:64-i64:64-i128:128-f80:128-n8:16:32:64-S128"
target triple = "x86_64-pc-linux-gnu"

%struct.rd_struct_s = type { i32, i16, i8, i8, ptr }
%struct.inode = type { ptr, ptr, ptr, i16, i16, %union.inode_ops_u, i16, ptr, [1 x i8] }
%union.inode_ops_u = type { ptr }

; Function Attrs: nounwind uwtable
define internal i64 @rd_write(ptr noundef %0, ptr noundef %1, i32 noundef %2, i32 noundef %3) #0 {
  %5 = alloca i64, align 8
  %6 = alloca ptr, align 8
  %7 = alloca ptr, align 8
  %8 = alloca i32, align 4
  %9 = alloca i32, align 4
  %10 = alloca ptr, align 8
  store ptr %0, ptr %6, align 8
  store ptr %1, ptr %7, align 8
  store i32 %2, ptr %8, align 4
  store i32 %3, ptr %9, align 4
  %11 = load ptr, ptr %6, align 8
  %12 = getelementptr inbounds %struct.inode, ptr %11, i32 0, i32 7
  %13 = load ptr, ptr %12, align 8
  store ptr %13, ptr %10, align 8
  br label %14

14:                                               ; preds = %4
  br label %15

15:                                               ; preds = %14
  %16 = load ptr, ptr %10, align 8
  %17 = getelementptr inbounds %struct.rd_struct_s, ptr %16, i32 0, i32 3
  %18 = load i8, ptr %17, align 1
  %19 = zext i8 %18 to i32
  %20 = and i32 %19, 1
  %21 = icmp ne i32 %20, 0
  br i1 %21, label %23, label %22

22:                                               ; preds = %15
  store i64 -13, ptr %5, align 8
  br label %63

23:                                               ; preds = %15
  %24 = load i32, ptr %8, align 4
  %25 = load ptr, ptr %10, align 8
  %26 = getelementptr inbounds %struct.rd_struct_s, ptr %25, i32 0, i32 0
  %27 = load i32, ptr %26, align 8
  %28 = icmp ult i32 %24, %27
  br i1 %28, label %29, label %61

29:                                               ; preds = %23
  %30 = load i32, ptr %8, align 4
  %31 = load i32, ptr %9, align 4
  %32 = add i32 %30, %31
  %33 = load ptr, ptr %10, align 8
  %34 = getelementptr inbounds %struct.rd_struct_s, ptr %33, i32 0, i32 0
  %35 = load i32, ptr %34, align 8
  %36 = icmp ule i32 %32, %35
  br i1 %36, label %37, label %61

37:                                               ; preds = %29
  br label %38

38:                                               ; preds = %37
  br label %39

39:                                               ; preds = %38
  %40 = load ptr, ptr %10, align 8
  %41 = getelementptr inbounds %struct.rd_struct_s, ptr %40, i32 0, i32 4
  %42 = load ptr, ptr %41, align 8
  %43 = load i32, ptr %8, align 4
  %44 = load ptr, ptr %10, align 8
  %45 = getelementptr inbounds %struct.rd_struct_s, ptr %44, i32 0, i32 1
  %46 = load i16, ptr %45, align 4
  %47 = zext i16 %46 to i32
  %48 = mul i32 %43, %47
  %49 = zext i32 %48 to i64
  %50 = getelementptr inbounds i8, ptr %42, i64 %49
  %51 = load ptr, ptr %7, align 8
  %52 = load i32, ptr %9, align 4
  %53 = load ptr, ptr %10, align 8
  %54 = getelementptr inbounds %struct.rd_struct_s, ptr %53, i32 0, i32 1
  %55 = load i16, ptr %54, align 4
  %56 = zext i16 %55 to i32
  %57 = mul i32 %52, %56
  %58 = zext i32 %57 to i64
  call void @llvm.memcpy.p0.p0.i64(ptr align 1 %50, ptr align 1 %51, i64 %58, i1 false)
  %59 = load i32, ptr %9, align 4
  %60 = zext i32 %59 to i64
  store i64 %60, ptr %5, align 8
  br label %63

61:                                               ; preds = %29, %23
  br label %62

62:                                               ; preds = %61
  store i64 -27, ptr %5, align 8
  br label %63

63:                                               ; preds = %62, %39, %22
  %64 = load i64, ptr %5, align 8
  ret i64 %64
}