; Function Attrs: mustprogress nofree norecurse nosync nounwind willreturn memory(readwrite, inaccessiblemem: none) uwtable
define internal range(i64 -27, 4294967296) i64 @rd_write(ptr noundef readonly captures(none) %0, ptr noundef readonly captures(none) %1, i32 noundef %2, i32 noundef %3) #5 {
  %5 = getelementptr inbounds nuw i8, ptr %0, i64 48
  %6 = load ptr, ptr %5, align 8
  %7 = getelementptr inbounds nuw i8, ptr %6, i64 7
  %8 = load i8, ptr %7, align 1
  %9 = and i8 %8, 1
  %.not = icmp eq i8 %9, 0
  br i1 %.not, label %26, label %10

10:                                               ; preds = %4
  %11 = load i32, ptr %6, align 8
  %12 = icmp uge i32 %2, %11
  %13 = add i32 %3, %2
  %.not16 = icmp ugt i32 %13, %11
  %or.cond = or i1 %12, %.not16
  br i1 %or.cond, label %26, label %14

14:                                               ; preds = %10
  %15 = getelementptr inbounds nuw i8, ptr %6, i64 8
  %16 = load ptr, ptr %15, align 8
  %17 = getelementptr inbounds nuw i8, ptr %6, i64 4
  %18 = load i16, ptr %17, align 4
  %19 = zext i16 %18 to i32
  %20 = mul i32 %2, %19
  %21 = zext i32 %20 to i64
  %22 = getelementptr inbounds nuw i8, ptr %16, i64 %21
  %23 = mul i32 %3, %19
  %24 = zext i32 %23 to i64
  tail call void @llvm.memcpy.p0.p0.i64(ptr align 1 %22, ptr align 1 %1, i64 %24, i1 false)
  %25 = zext i32 %3 to i64
  br label %26

26:                                               ; preds = %10, %4, %14
  %.0 = phi i64 [ %25, %14 ], [ -13, %4 ], [ -27, %10 ]
  ret i64 %.0
}